; Function Attrs: nounwind uwtable
define hidden ptr @Curl_cpool_get_conn(ptr noundef readonly %0, i64 noundef %1) local_unnamed_addr #0 {
  %3 = alloca %struct.Curl_hash_iterator, align 8
  %.not.i = icmp eq ptr %0, null
  br i1 %.not.i, label %cpool_get_instance.exit, label %4

4:                                                ; preds = %2
  %5 = getelementptr inbounds nuw i8, ptr %0, i64 224
  %6 = load ptr, ptr %5, align 8, !tbaa !82
  %.not13.i = icmp eq ptr %6, null
  br i1 %.not13.i, label %13, label %7

7:                                                ; preds = %4
  %8 = getelementptr inbounds nuw i8, ptr %6, i64 4
  %9 = load i32, ptr %8, align 4, !tbaa !89
  %10 = and i32 %9, 32
  %.not14.i = icmp eq i32 %10, 0
  br i1 %.not14.i, label %13, label %11

11:                                               ; preds = %7
  %12 = getelementptr inbounds nuw i8, ptr %6, i64 40
  br label %22

13:                                               ; preds = %7, %4
  %14 = getelementptr inbounds nuw i8, ptr %0, i64 216
  %15 = load ptr, ptr %14, align 8, !tbaa !123
  %.not15.i = icmp eq ptr %15, null
  br i1 %.not15.i, label %18, label %16

16:                                               ; preds = %13
  %17 = getelementptr inbounds nuw i8, ptr %15, i64 416
  br label %22

18:                                               ; preds = %13
  %19 = getelementptr inbounds nuw i8, ptr %0, i64 208
  %20 = load ptr, ptr %19, align 8, !tbaa !20
  %.not16.i = icmp eq ptr %20, null
  %21 = getelementptr inbounds nuw i8, ptr %20, i64 416
  br i1 %.not16.i, label %cpool_get_instance.exit, label %22

22:                                               ; preds = %11, %16, %18
  %.0.i.ph = phi ptr [ %21, %18 ], [ %17, %16 ], [ %12, %11 ]
  %23 = getelementptr inbounds nuw i8, ptr %.0.i.ph, i64 136
  %24 = load ptr, ptr %23, align 8, !tbaa !81
  %.not18 = icmp eq ptr %24, null
  br i1 %.not18, label %33, label %25

25:                                               ; preds = %22
  %26 = getelementptr inbounds nuw i8, ptr %24, i64 4
  %27 = load i32, ptr %26, align 4, !tbaa !89
  %28 = and i32 %27, 32
  %.not19 = icmp eq i32 %28, 0
  br i1 %.not19, label %33, label %29

29:                                               ; preds = %25
  %30 = getelementptr inbounds nuw i8, ptr %.0.i.ph, i64 120
  %31 = load ptr, ptr %30, align 8, !tbaa !3
  %32 = tail call i32 @Curl_share_lock(ptr noundef %31, i32 noundef 5, i32 noundef 2) #8
  br label %33

33:                                               ; preds = %22, %25, %29
  %34 = getelementptr inbounds nuw i8, ptr %.0.i.ph, i64 152
  %35 = load i8, ptr %34, align 8
  %36 = or i8 %35, 1
  store i8 %36, ptr %34, align 8
  %37 = getelementptr inbounds nuw i8, ptr %.0.i.ph, i64 120
  call void @llvm.lifetime.start.p0(i64 24, ptr nonnull %3) #8
  call void @Curl_hash_start_iterate(ptr noundef nonnull %.0.i.ph, ptr noundef nonnull %3) #8
  %38 = call ptr @Curl_hash_next_element(ptr noundef nonnull %3) #8
  %.not24.not.i = icmp eq ptr %38, null
  br i1 %.not24.not.i, label %cpool_foreach.exit, label %.lr.ph.i

.critedge.loopexit.i:                             ; preds = %43, %.lr.ph.i
  %.not.not.i = icmp eq ptr %41, null
  br i1 %.not.not.i, label %cpool_foreach.exit, label %.lr.ph.i

.lr.ph.i:                                         ; preds = %33, %.critedge.loopexit.i
  %.01525.i = phi ptr [ %41, %.critedge.loopexit.i ], [ %38, %33 ]
  %39 = getelementptr inbounds nuw i8, ptr %.01525.i, i64 32
  %40 = load ptr, ptr %39, align 8, !tbaa !93
  %41 = call ptr @Curl_hash_next_element(ptr noundef nonnull %3) #8
  %42 = call ptr @Curl_llist_head(ptr noundef %40) #8
  %.not20.i31 = icmp eq ptr %42, null
  br i1 %.not20.i31, label %.critedge.loopexit.i, label %cpool_find_conn.exit

43:                                               ; preds = %cpool_find_conn.exit
  %.not20.i = icmp eq ptr %45, null
  br i1 %.not20.i, label %.critedge.loopexit.i, label %cpool_find_conn.exit, !llvm.loop !161

cpool_find_conn.exit:                             ; preds = %.lr.ph.i, %43
  %.016.i32 = phi ptr [ %45, %43 ], [ %42, %.lr.ph.i ]
  %44 = call ptr @Curl_node_elem(ptr noundef nonnull %.016.i32) #8
  %45 = call ptr @Curl_node_next(ptr noundef nonnull %.016.i32) #8
  %46 = getelementptr inbounds nuw i8, ptr %44, i64 48
  %47 = load i64, ptr %46, align 8, !tbaa !137
  %48 = icmp eq i64 %47, %1
  br i1 %48, label %cpool_foreach.exit, label %43, !llvm.loop !163

cpool_foreach.exit:                               ; preds = %.critedge.loopexit.i, %cpool_find_conn.exit, %33
  %.sroa.4.2 = phi ptr [ null, %33 ], [ %44, %cpool_find_conn.exit ], [ null, %.critedge.loopexit.i ]
  call void @llvm.lifetime.end.p0(i64 24, ptr nonnull %3) #8
  %49 = load i8, ptr %34, align 8
  %50 = and i8 %49, -2
  store i8 %50, ptr %34, align 8
  %51 = load ptr, ptr %23, align 8, !tbaa !81
  %.not20 = icmp eq ptr %51, null
  br i1 %.not20, label %cpool_get_instance.exit, label %52

52:                                               ; preds = %cpool_foreach.exit
  %53 = getelementptr inbounds nuw i8, ptr %51, i64 4
  %54 = load i32, ptr %53, align 4, !tbaa !89
  %55 = and i32 %54, 32
  %.not21 = icmp eq i32 %55, 0
  br i1 %.not21, label %cpool_get_instance.exit, label %56

56:                                               ; preds = %52
  %57 = load ptr, ptr %37, align 8, !tbaa !3
  %58 = call i32 @Curl_share_unlock(ptr noundef %57, i32 noundef 5) #8
  br label %cpool_get_instance.exit

cpool_get_instance.exit:                          ; preds = %18, %56, %52, %cpool_foreach.exit, %2
  %.0 = phi ptr [ null, %2 ], [ %.sroa.4.2, %cpool_foreach.exit ], [ %.sroa.4.2, %52 ], [ %.sroa.4.2, %56 ], [ null, %18 ]
  ret ptr %.0
}